(lp0
(S'cppflags'
p1
ccopy_reg
_reconstructor
p2
(cino.utils
SpaceList
p3
c__builtin__
list
p4
(lp5
S'-mmcu=atmega32u4'
p6
aS'-DF_CPU=16000000L'
p7
aS'-DARDUINO=105'
p8
aS'-I/usr/share/arduino/hardware/arduino/cores/arduino'
p9
aS'-ffunction-sections'
p10
aS'-fdata-sections'
p11
aS'-g'
p12
aS'-Os'
p13
aS'-w'
p14
aS'-DUSB_VID=0x2341'
p15
aS'-DUSB_PID=0x8036'
p16
aS'-I/usr/share/arduino/hardware/arduino/variants/leonardo'
p17
aS'-I/usr/share/arduino/hardware/arduino/cores/arduino'
p18
aS'-I/usr/share/arduino/hardware/arduino/cores/arduino/avr-libc'
p19
atp20
Rp21
tp22
a(S'cxx'
p23
S'/usr/bin/avr-g++'
p24
tp25
a(S'arduino_libraries_dir'
p26
S'/usr/share/arduino/libraries'
p27
tp28
a(S'avrdude'
p29
S'/usr/share/arduino/hardware/tools/avrdude'
p30
tp31
a(S'ar'
p32
S'/usr/bin/avr-ar'
p33
tp34
a(S'names'
p35
(dp36
S'cpp'
p37
S'%s.cpp'
p38
sS'obj'
p39
S'%s.o'
p40
sS'lib'
p41
S'lib%s.a'
p42
sS'deps'
p43
S'%s.d'
p44
stp45
a(S'ldflags'
p46
g2
(g3
g4
(lp47
g6
aS'-Wl,-Os'
p48
aS'-Wl,--gc-sections'
p49
atp50
Rp51
tp52
a(S'arduino_lib_version'
p53
g2
(cino.environment
Version
p54
c__builtin__
tuple
p55
(I1
I0
I5
tp56
tp57
Rp58
tp59
a(S'objcopy'
p60
S'/usr/bin/avr-objcopy'
p61
tp62
a(S'board_models'
p63
cino.environment
BoardModels
p64
((lp65
(lp66
S'uno'
p67
a(dp68
S'bootloader'
p69
(dp70
S'extended_fuses'
p71
S'0x05'
p72
sS'high_fuses'
p73
S'0xde'
p74
sS'low_fuses'
p75
S'0xff'
p76
sS'lock_bits'
p77
S'0x0F'
p78
sS'file'
p79
S'optiboot_atmega328.hex'
p80
sS'path'
p81
S'optiboot'
p82
sS'unlock_bits'
p83
S'0x3F'
p84
ssS'upload'
p85
(dp86
S'protocol'
p87
S'arduino'
p88
sS'maximum_size'
p89
S'32256'
p90
sS'speed'
p91
S'115200'
p92
ssS'build'
p93
(dp94
S'core'
p95
S'arduino'
p96
sS'mcu'
p97
S'atmega328p'
p98
sS'f_cpu'
p99
S'16000000L'
p100
sS'variant'
p101
S'standard'
p102
ssS'name'
p103
S'Arduino Uno'
p104
saa(lp105
S'atmega328'
p106
a(dp107
S'bootloader'
p108
(dp109
S'extended_fuses'
p110
S'0x05'
p111
sS'high_fuses'
p112
S'0xDA'
p113
sS'low_fuses'
p114
S'0xFF'
p115
sS'lock_bits'
p116
S'0x0F'
p117
sS'file'
p118
S'ATmegaBOOT_168_atmega328.hex'
p119
sS'path'
p120
S'atmega'
p121
sS'unlock_bits'
p122
S'0x3F'
p123
ssS'upload'
p124
(dp125
S'protocol'
p126
S'arduino'
p127
sS'maximum_size'
p128
S'30720'
p129
sS'speed'
p130
S'57600'
p131
ssS'build'
p132
(dp133
S'core'
p134
S'arduino'
p135
sS'mcu'
p136
S'atmega328p'
p137
sS'f_cpu'
p138
S'16000000L'
p139
sS'variant'
p140
S'standard'
p141
ssS'name'
p142
S'Arduino Duemilanove w/ ATmega328'
p143
saa(lp144
S'diecimila'
p145
a(dp146
S'bootloader'
p147
(dp148
S'extended_fuses'
p149
S'0x00'
p150
sS'high_fuses'
p151
S'0xdd'
p152
sS'low_fuses'
p153
S'0xff'
p154
sS'lock_bits'
p155
S'0x0F'
p156
sS'file'
p157
S'ATmegaBOOT_168_diecimila.hex'
p158
sS'path'
p159
S'atmega'
p160
sS'unlock_bits'
p161
S'0x3F'
p162
ssS'upload'
p163
(dp164
S'protocol'
p165
S'arduino'
p166
sS'maximum_size'
p167
S'14336'
p168
sS'speed'
p169
S'19200'
p170
ssS'build'
p171
(dp172
S'core'
p173
S'arduino'
p174
sS'mcu'
p175
S'atmega168'
p176
sS'f_cpu'
p177
S'16000000L'
p178
sS'variant'
p179
S'standard'
p180
ssS'name'
p181
S'Arduino Diecimila or Duemilanove w/ ATmega168'
p182
saa(lp183
S'nano328'
p184
a(dp185
S'bootloader'
p186
(dp187
S'extended_fuses'
p188
S'0x05'
p189
sS'high_fuses'
p190
S'0xDA'
p191
sS'low_fuses'
p192
S'0xFF'
p193
sS'lock_bits'
p194
S'0x0F'
p195
sS'file'
p196
S'ATmegaBOOT_168_atmega328.hex'
p197
sS'path'
p198
S'atmega'
p199
sS'unlock_bits'
p200
S'0x3F'
p201
ssS'upload'
p202
(dp203
S'protocol'
p204
S'arduino'
p205
sS'maximum_size'
p206
S'30720'
p207
sS'speed'
p208
S'57600'
p209
ssS'build'
p210
(dp211
S'core'
p212
S'arduino'
p213
sS'mcu'
p214
S'atmega328p'
p215
sS'f_cpu'
p216
S'16000000L'
p217
sS'variant'
p218
S'eightanaloginputs'
p219
ssS'name'
p220
S'Arduino Nano w/ ATmega328'
p221
saa(lp222
S'nano'
p223
a(dp224
S'bootloader'
p225
(dp226
S'extended_fuses'
p227
S'0x00'
p228
sS'high_fuses'
p229
S'0xdd'
p230
sS'low_fuses'
p231
S'0xff'
p232
sS'lock_bits'
p233
S'0x0F'
p234
sS'file'
p235
S'ATmegaBOOT_168_diecimila.hex'
p236
sS'path'
p237
S'atmega'
p238
sS'unlock_bits'
p239
S'0x3F'
p240
ssS'upload'
p241
(dp242
S'protocol'
p243
S'arduino'
p244
sS'maximum_size'
p245
S'14336'
p246
sS'speed'
p247
S'19200'
p248
ssS'build'
p249
(dp250
S'core'
p251
S'arduino'
p252
sS'mcu'
p253
S'atmega168'
p254
sS'f_cpu'
p255
S'16000000L'
p256
sS'variant'
p257
S'eightanaloginputs'
p258
ssS'name'
p259
S'Arduino Nano w/ ATmega168'
p260
saa(lp261
S'mega2560'
p262
a(dp263
S'bootloader'
p264
(dp265
S'extended_fuses'
p266
S'0xFD'
p267
sS'high_fuses'
p268
S'0xD8'
p269
sS'low_fuses'
p270
S'0xFF'
p271
sS'lock_bits'
p272
S'0x0F'
p273
sS'file'
p274
S'stk500boot_v2_mega2560.hex'
p275
sS'path'
p276
S'stk500v2'
p277
sS'unlock_bits'
p278
S'0x3F'
p279
ssS'upload'
p280
(dp281
S'protocol'
p282
S'wiring'
p283
sS'maximum_size'
p284
S'258048'
p285
sS'speed'
p286
S'115200'
p287
ssS'build'
p288
(dp289
S'core'
p290
S'arduino'
p291
sS'mcu'
p292
S'atmega2560'
p293
sS'f_cpu'
p294
S'16000000L'
p295
sS'variant'
p296
S'mega'
p297
ssS'name'
p298
S'Arduino Mega 2560 or Mega ADK'
p299
saa(lp300
S'mega'
p301
a(dp302
S'bootloader'
p303
(dp304
S'extended_fuses'
p305
S'0xF5'
p306
sS'high_fuses'
p307
S'0xDA'
p308
sS'low_fuses'
p309
S'0xFF'
p310
sS'lock_bits'
p311
S'0x0F'
p312
sS'file'
p313
S'ATmegaBOOT_168_atmega1280.hex'
p314
sS'path'
p315
S'atmega'
p316
sS'unlock_bits'
p317
S'0x3F'
p318
ssS'upload'
p319
(dp320
S'protocol'
p321
S'arduino'
p322
sS'maximum_size'
p323
S'126976'
p324
sS'speed'
p325
S'57600'
p326
ssS'build'
p327
(dp328
S'core'
p329
S'arduino'
p330
sS'mcu'
p331
S'atmega1280'
p332
sS'f_cpu'
p333
S'16000000L'
p334
sS'variant'
p335
S'mega'
p336
ssS'name'
p337
S'Arduino Mega (ATmega1280)'
p338
saa(lp339
S'leonardo'
p340
a(dp341
S'bootloader'
p342
(dp343
S'extended_fuses'
p344
S'0xcb'
p345
sS'high_fuses'
p346
S'0xd8'
p347
sS'low_fuses'
p348
S'0xff'
p349
sS'lock_bits'
p350
S'0x2F'
p351
sS'file'
p352
S'Caterina-Leonardo.hex'
p353
sS'path'
p354
S'caterina'
p355
sS'unlock_bits'
p356
S'0x3F'
p357
ssS'upload'
p358
(dp359
S'protocol'
p360
S'avr109'
p361
sS'maximum_size'
p362
S'28672'
p363
sS'speed'
p364
S'57600'
p365
sS'disable_flushing'
p366
S'true'
p367
ssS'build'
p368
(dp369
S'core'
p370
S'arduino'
p371
sS'f_cpu'
p372
S'16000000L'
p373
sS'vid'
p374
S'0x2341'
p375
sS'pid'
p376
S'0x8036'
p377
sS'variant'
p378
S'leonardo'
p379
sS'mcu'
p380
S'atmega32u4'
p381
ssS'name'
p382
S'Arduino Leonardo'
p383
saa(lp384
S'esplora'
p385
a(dp386
S'bootloader'
p387
(dp388
S'extended_fuses'
p389
S'0xcb'
p390
sS'high_fuses'
p391
S'0xd8'
p392
sS'low_fuses'
p393
S'0xff'
p394
sS'lock_bits'
p395
S'0x2F'
p396
sS'file'
p397
S'Caterina-Esplora.hex'
p398
sS'path'
p399
S'caterina'
p400
sS'unlock_bits'
p401
S'0x3F'
p402
ssS'upload'
p403
(dp404
S'protocol'
p405
S'avr109'
p406
sS'maximum_size'
p407
S'28672'
p408
sS'speed'
p409
S'57600'
p410
sS'disable_flushing'
p411
S'true'
p412
ssS'build'
p413
(dp414
S'core'
p415
S'arduino'
p416
sS'f_cpu'
p417
S'16000000L'
p418
sS'vid'
p419
S'0x2341'
p420
sS'pid'
p421
S'0x803C'
p422
sS'variant'
p423
S'leonardo'
p424
sS'mcu'
p425
S'atmega32u4'
p426
ssS'name'
p427
S'Arduino Esplora'
p428
saa(lp429
S'micro'
p430
a(dp431
S'bootloader'
p432
(dp433
S'extended_fuses'
p434
S'0xcb'
p435
sS'high_fuses'
p436
S'0xd8'
p437
sS'low_fuses'
p438
S'0xff'
p439
sS'lock_bits'
p440
S'0x2F'
p441
sS'file'
p442
S'Caterina-Micro.hex'
p443
sS'path'
p444
S'caterina'
p445
sS'unlock_bits'
p446
S'0x3F'
p447
ssS'upload'
p448
(dp449
S'protocol'
p450
S'avr109'
p451
sS'maximum_size'
p452
S'28672'
p453
sS'speed'
p454
S'57600'
p455
sS'disable_flushing'
p456
S'true'
p457
ssS'build'
p458
(dp459
S'core'
p460
S'arduino'
p461
sS'f_cpu'
p462
S'16000000L'
p463
sS'vid'
p464
S'0x2341'
p465
sS'pid'
p466
S'0x8037'
p467
sS'variant'
p468
S'micro'
p469
sS'mcu'
p470
S'atmega32u4'
p471
ssS'name'
p472
S'Arduino Micro'
p473
saa(lp474
S'mini328'
p475
a(dp476
S'bootloader'
p477
(dp478
S'extended_fuses'
p479
S'0x05'
p480
sS'high_fuses'
p481
S'0xd8'
p482
sS'low_fuses'
p483
S'0xff'
p484
sS'lock_bits'
p485
S'0x0F'
p486
sS'file'
p487
S'optiboot_atmega328-Mini.hex'
p488
sS'path'
p489
S'optiboot'
p490
sS'unlock_bits'
p491
S'0x3F'
p492
ssS'upload'
p493
(dp494
S'protocol'
p495
S'arduino'
p496
sS'maximum_size'
p497
S'28672'
p498
sS'speed'
p499
S'115200'
p500
ssS'build'
p501
(dp502
S'core'
p503
S'arduino'
p504
sS'mcu'
p505
S'atmega328p'
p506
sS'f_cpu'
p507
S'16000000L'
p508
sS'variant'
p509
S'eightanaloginputs'
p510
ssS'name'
p511
S'Arduino Mini w/ ATmega328'
p512
saa(lp513
S'mini'
p514
a(dp515
S'bootloader'
p516
(dp517
S'extended_fuses'
p518
S'0x00'
p519
sS'high_fuses'
p520
S'0xdd'
p521
sS'low_fuses'
p522
S'0xff'
p523
sS'lock_bits'
p524
S'0x0F'
p525
sS'file'
p526
S'ATmegaBOOT_168_ng.hex'
p527
sS'path'
p528
S'atmega'
p529
sS'unlock_bits'
p530
S'0x3F'
p531
ssS'upload'
p532
(dp533
S'protocol'
p534
S'arduino'
p535
sS'maximum_size'
p536
S'14336'
p537
sS'speed'
p538
S'19200'
p539
ssS'build'
p540
(dp541
S'core'
p542
S'arduino'
p543
sS'mcu'
p544
S'atmega168'
p545
sS'f_cpu'
p546
S'16000000L'
p547
sS'variant'
p548
S'eightanaloginputs'
p549
ssS'name'
p550
S'Arduino Mini w/ ATmega168'
p551
saa(lp552
S'ethernet'
p553
a(dp554
S'bootloader'
p555
(dp556
S'extended_fuses'
p557
S'0x05'
p558
sS'high_fuses'
p559
S'0xde'
p560
sS'low_fuses'
p561
S'0xff'
p562
sS'lock_bits'
p563
S'0x0F'
p564
sS'file'
p565
S'optiboot_atmega328.hex'
p566
sS'path'
p567
S'optiboot'
p568
sS'unlock_bits'
p569
S'0x3F'
p570
ssS'upload'
p571
(dp572
S'protocol'
p573
S'arduino'
p574
sS'maximum_size'
p575
S'32256'
p576
sS'speed'
p577
S'115200'
p578
ssS'build'
p579
(dp580
S'variant'
p581
S'standard'
p582
sS'mcu'
p583
S'atmega328p'
p584
sS'f_cpu'
p585
S'16000000L'
p586
sS'core'
p587
S'arduino'
p588
ssS'name'
p589
S'Arduino Ethernet'
p590
saa(lp591
S'fio'
p592
a(dp593
S'bootloader'
p594
(dp595
S'extended_fuses'
p596
S'0x05'
p597
sS'high_fuses'
p598
S'0xDA'
p599
sS'low_fuses'
p600
S'0xFF'
p601
sS'lock_bits'
p602
S'0x0F'
p603
sS'file'
p604
S'ATmegaBOOT_168_atmega328_pro_8MHz.hex'
p605
sS'path'
p606
S'arduino:atmega'
p607
sS'unlock_bits'
p608
S'0x3F'
p609
ssS'upload'
p610
(dp611
S'protocol'
p612
S'arduino'
p613
sS'maximum_size'
p614
S'30720'
p615
sS'speed'
p616
S'57600'
p617
ssS'build'
p618
(dp619
S'core'
p620
S'arduino'
p621
sS'mcu'
p622
S'atmega328p'
p623
sS'f_cpu'
p624
S'8000000L'
p625
sS'variant'
p626
S'eightanaloginputs'
p627
ssS'name'
p628
S'Arduino Fio'
p629
saa(lp630
S'bt328'
p631
a(dp632
S'bootloader'
p633
(dp634
S'extended_fuses'
p635
S'0x05'
p636
sS'high_fuses'
p637
S'0xd8'
p638
sS'low_fuses'
p639
S'0xff'
p640
sS'lock_bits'
p641
S'0x0F'
p642
sS'file'
p643
S'ATmegaBOOT_168_atmega328_bt.hex'
p644
sS'path'
p645
S'bt'
p646
sS'unlock_bits'
p647
S'0x3F'
p648
ssS'upload'
p649
(dp650
S'protocol'
p651
S'arduino'
p652
sS'maximum_size'
p653
S'28672'
p654
sS'speed'
p655
S'19200'
p656
sS'disable_flushing'
p657
S'true'
p658
ssS'build'
p659
(dp660
S'core'
p661
S'arduino'
p662
sS'mcu'
p663
S'atmega328p'
p664
sS'f_cpu'
p665
S'16000000L'
p666
sS'variant'
p667
S'eightanaloginputs'
p668
ssS'name'
p669
S'Arduino BT w/ ATmega328'
p670
saa(lp671
S'bt'
p672
a(dp673
S'bootloader'
p674
(dp675
S'extended_fuses'
p676
S'0x00'
p677
sS'high_fuses'
p678
S'0xdd'
p679
sS'low_fuses'
p680
S'0xff'
p681
sS'lock_bits'
p682
S'0x0F'
p683
sS'file'
p684
S'ATmegaBOOT_168.hex'
p685
sS'path'
p686
S'bt'
p687
sS'unlock_bits'
p688
S'0x3F'
p689
ssS'upload'
p690
(dp691
S'protocol'
p692
S'arduino'
p693
sS'maximum_size'
p694
S'14336'
p695
sS'speed'
p696
S'19200'
p697
sS'disable_flushing'
p698
S'true'
p699
ssS'build'
p700
(dp701
S'core'
p702
S'arduino'
p703
sS'mcu'
p704
S'atmega168'
p705
sS'f_cpu'
p706
S'16000000L'
p707
sS'variant'
p708
S'eightanaloginputs'
p709
ssS'name'
p710
S'Arduino BT w/ ATmega168'
p711
saa(lp712
S'LilyPadUSB'
p713
a(dp714
S'bootloader'
p715
(dp716
S'extended_fuses'
p717
S'0xce'
p718
sS'high_fuses'
p719
S'0xd8'
p720
sS'low_fuses'
p721
S'0xff'
p722
sS'lock_bits'
p723
S'0x2F'
p724
sS'file'
p725
S'Caterina-LilyPadUSB.hex'
p726
sS'path'
p727
S'caterina-LilyPadUSB'
p728
sS'unlock_bits'
p729
S'0x3F'
p730
ssS'upload'
p731
(dp732
S'protocol'
p733
S'avr109'
p734
sS'maximum_size'
p735
S'28672'
p736
sS'speed'
p737
S'57600'
p738
sS'disable_flushing'
p739
S'true'
p740
ssS'build'
p741
(dp742
S'core'
p743
S'arduino'
p744
sS'f_cpu'
p745
S'8000000L'
p746
sS'vid'
p747
S'0x1B4F'
p748
sS'pid'
p749
S'0x9208'
p750
sS'variant'
p751
S'leonardo'
p752
sS'mcu'
p753
S'atmega32u4'
p754
ssS'name'
p755
S'LilyPad Arduino USB'
p756
saa(lp757
S'lilypad328'
p758
a(dp759
S'bootloader'
p760
(dp761
S'extended_fuses'
p762
S'0x05'
p763
sS'high_fuses'
p764
S'0xDA'
p765
sS'low_fuses'
p766
S'0xFF'
p767
sS'lock_bits'
p768
S'0x0F'
p769
sS'file'
p770
S'ATmegaBOOT_168_atmega328_pro_8MHz.hex'
p771
sS'path'
p772
S'atmega'
p773
sS'unlock_bits'
p774
S'0x3F'
p775
ssS'upload'
p776
(dp777
S'protocol'
p778
S'arduino'
p779
sS'maximum_size'
p780
S'30720'
p781
sS'speed'
p782
S'57600'
p783
ssS'build'
p784
(dp785
S'core'
p786
S'arduino'
p787
sS'mcu'
p788
S'atmega328p'
p789
sS'f_cpu'
p790
S'8000000L'
p791
sS'variant'
p792
S'standard'
p793
ssS'name'
p794
S'LilyPad Arduino w/ ATmega328'
p795
saa(lp796
S'lilypad'
p797
a(dp798
S'bootloader'
p799
(dp800
S'extended_fuses'
p801
S'0x00'
p802
sS'high_fuses'
p803
S'0xdd'
p804
sS'low_fuses'
p805
S'0xe2'
p806
sS'lock_bits'
p807
S'0x0F'
p808
sS'file'
p809
S'LilyPadBOOT_168.hex'
p810
sS'path'
p811
S'lilypad'
p812
sS'unlock_bits'
p813
S'0x3F'
p814
ssS'upload'
p815
(dp816
S'protocol'
p817
S'arduino'
p818
sS'maximum_size'
p819
S'14336'
p820
sS'speed'
p821
S'19200'
p822
ssS'build'
p823
(dp824
S'core'
p825
S'arduino'
p826
sS'mcu'
p827
S'atmega168'
p828
sS'f_cpu'
p829
S'8000000L'
p830
sS'variant'
p831
S'standard'
p832
ssS'name'
p833
S'LilyPad Arduino w/ ATmega168'
p834
saa(lp835
S'pro5v328'
p836
a(dp837
S'bootloader'
p838
(dp839
S'extended_fuses'
p840
S'0x05'
p841
sS'high_fuses'
p842
S'0xDA'
p843
sS'low_fuses'
p844
S'0xFF'
p845
sS'lock_bits'
p846
S'0x0F'
p847
sS'file'
p848
S'ATmegaBOOT_168_atmega328.hex'
p849
sS'path'
p850
S'atmega'
p851
sS'unlock_bits'
p852
S'0x3F'
p853
ssS'upload'
p854
(dp855
S'protocol'
p856
S'arduino'
p857
sS'maximum_size'
p858
S'30720'
p859
sS'speed'
p860
S'57600'
p861
ssS'build'
p862
(dp863
S'core'
p864
S'arduino'
p865
sS'mcu'
p866
S'atmega328p'
p867
sS'f_cpu'
p868
S'16000000L'
p869
sS'variant'
p870
S'standard'
p871
ssS'name'
p872
S'Arduino Pro or Pro Mini (5V, 16 MHz) w/ ATmega328'
p873
saa(lp874
S'pro5v'
p875
a(dp876
S'bootloader'
p877
(dp878
S'extended_fuses'
p879
S'0x00'
p880
sS'high_fuses'
p881
S'0xdd'
p882
sS'low_fuses'
p883
S'0xff'
p884
sS'lock_bits'
p885
S'0x0F'
p886
sS'file'
p887
S'ATmegaBOOT_168_diecimila.hex'
p888
sS'path'
p889
S'atmega'
p890
sS'unlock_bits'
p891
S'0x3F'
p892
ssS'upload'
p893
(dp894
S'protocol'
p895
S'arduino'
p896
sS'maximum_size'
p897
S'14336'
p898
sS'speed'
p899
S'19200'
p900
ssS'build'
p901
(dp902
S'core'
p903
S'arduino'
p904
sS'mcu'
p905
S'atmega168'
p906
sS'f_cpu'
p907
S'16000000L'
p908
sS'variant'
p909
S'standard'
p910
ssS'name'
p911
S'Arduino Pro or Pro Mini (5V, 16 MHz) w/ ATmega168'
p912
saa(lp913
S'pro328'
p914
a(dp915
S'bootloader'
p916
(dp917
S'extended_fuses'
p918
S'0x05'
p919
sS'high_fuses'
p920
S'0xDA'
p921
sS'low_fuses'
p922
S'0xFF'
p923
sS'lock_bits'
p924
S'0x0F'
p925
sS'file'
p926
S'ATmegaBOOT_168_atmega328_pro_8MHz.hex'
p927
sS'path'
p928
S'atmega'
p929
sS'unlock_bits'
p930
S'0x3F'
p931
ssS'upload'
p932
(dp933
S'protocol'
p934
S'arduino'
p935
sS'maximum_size'
p936
S'30720'
p937
sS'speed'
p938
S'57600'
p939
ssS'build'
p940
(dp941
S'core'
p942
S'arduino'
p943
sS'mcu'
p944
S'atmega328p'
p945
sS'f_cpu'
p946
S'8000000L'
p947
sS'variant'
p948
S'standard'
p949
ssS'name'
p950
S'Arduino Pro or Pro Mini (3.3V, 8 MHz) w/ ATmega328'
p951
saa(lp952
S'pro'
p953
a(dp954
S'bootloader'
p955
(dp956
S'extended_fuses'
p957
S'0x00'
p958
sS'high_fuses'
p959
S'0xdd'
p960
sS'low_fuses'
p961
S'0xc6'
p962
sS'lock_bits'
p963
S'0x0F'
p964
sS'file'
p965
S'ATmegaBOOT_168_pro_8MHz.hex'
p966
sS'path'
p967
S'atmega'
p968
sS'unlock_bits'
p969
S'0x3F'
p970
ssS'upload'
p971
(dp972
S'protocol'
p973
S'arduino'
p974
sS'maximum_size'
p975
S'14336'
p976
sS'speed'
p977
S'19200'
p978
ssS'build'
p979
(dp980
S'core'
p981
S'arduino'
p982
sS'mcu'
p983
S'atmega168'
p984
sS'f_cpu'
p985
S'8000000L'
p986
sS'variant'
p987
S'standard'
p988
ssS'name'
p989
S'Arduino Pro or Pro Mini (3.3V, 8 MHz) w/ ATmega168'
p990
saa(lp991
S'atmega168'
p992
a(dp993
S'bootloader'
p994
(dp995
S'extended_fuses'
p996
S'0x00'
p997
sS'high_fuses'
p998
S'0xdd'
p999
sS'low_fuses'
p1000
S'0xff'
p1001
sS'lock_bits'
p1002
S'0x0F'
p1003
sS'file'
p1004
S'ATmegaBOOT_168_ng.hex'
p1005
sS'path'
p1006
S'atmega'
p1007
sS'unlock_bits'
p1008
S'0x3F'
p1009
ssS'upload'
p1010
(dp1011
S'protocol'
p1012
S'arduino'
p1013
sS'maximum_size'
p1014
S'14336'
p1015
sS'speed'
p1016
S'19200'
p1017
ssS'build'
p1018
(dp1019
S'core'
p1020
S'arduino'
p1021
sS'mcu'
p1022
S'atmega168'
p1023
sS'f_cpu'
p1024
S'16000000L'
p1025
sS'variant'
p1026
S'standard'
p1027
ssS'name'
p1028
S'Arduino NG or older w/ ATmega168'
p1029
saa(lp1030
S'atmega8'
p1031
a(dp1032
S'bootloader'
p1033
(dp1034
S'high_fuses'
p1035
S'0xca'
p1036
sS'low_fuses'
p1037
S'0xdf'
p1038
sS'lock_bits'
p1039
S'0x0F'
p1040
sS'file'
p1041
S'ATmegaBOOT-prod-firmware-2009-11-07.hex'
p1042
sS'path'
p1043
S'atmega8'
p1044
sS'unlock_bits'
p1045
S'0x3F'
p1046
ssS'upload'
p1047
(dp1048
S'protocol'
p1049
S'arduino'
p1050
sS'maximum_size'
p1051
S'7168'
p1052
sS'speed'
p1053
S'19200'
p1054
ssS'build'
p1055
(dp1056
S'core'
p1057
S'arduino'
p1058
sS'mcu'
p1059
S'atmega8'
p1060
sS'f_cpu'
p1061
S'16000000L'
p1062
sS'variant'
p1063
S'standard'
p1064
ssS'name'
p1065
S'Arduino NG or older w/ ATmega8'
p1066
saa(lp1067
S'robotControl'
p1068
a(dp1069
S'bootloader'
p1070
(dp1071
S'extended_fuses'
p1072
S'0xcb'
p1073
sS'high_fuses'
p1074
S'0xd8'
p1075
sS'low_fuses'
p1076
S'0xff'
p1077
sS'lock_bits'
p1078
S'0x2F'
p1079
sS'file'
p1080
S'Caterina-Robot-Control.hex'
p1081
sS'path'
p1082
S'caterina-Arduino_Robot'
p1083
sS'unlock_bits'
p1084
S'0x3F'
p1085
ssS'upload'
p1086
(dp1087
S'protocol'
p1088
S'avr109'
p1089
sS'maximum_size'
p1090
S'28672'
p1091
sS'speed'
p1092
S'57600'
p1093
sS'disable_flushing'
p1094
S'true'
p1095
ssS'build'
p1096
(dp1097
S'core'
p1098
S'robot'
p1099
sS'f_cpu'
p1100
S'16000000L'
p1101
sS'vid'
p1102
S'0x2341'
p1103
sS'pid'
p1104
S'0x8038'
p1105
sS'variant'
p1106
S'robot_control'
p1107
sS'mcu'
p1108
S'atmega32u4'
p1109
ssS'name'
p1110
S'Arduino Robot Control'
p1111
saa(lp1112
S'robotMotor'
p1113
a(dp1114
S'bootloader'
p1115
(dp1116
S'extended_fuses'
p1117
S'0xcb'
p1118
sS'high_fuses'
p1119
S'0xd8'
p1120
sS'low_fuses'
p1121
S'0xff'
p1122
sS'lock_bits'
p1123
S'0x2F'
p1124
sS'file'
p1125
S'Caterina-Robot-Motor.hex'
p1126
sS'path'
p1127
S'caterina-Arduino_Robot'
p1128
sS'unlock_bits'
p1129
S'0x3F'
p1130
ssS'upload'
p1131
(dp1132
S'protocol'
p1133
S'avr109'
p1134
sS'maximum_size'
p1135
S'28672'
p1136
sS'speed'
p1137
S'57600'
p1138
sS'disable_flushing'
p1139
S'true'
p1140
ssS'build'
p1141
(dp1142
S'core'
p1143
S'robot'
p1144
sS'f_cpu'
p1145
S'16000000L'
p1146
sS'vid'
p1147
S'0x2341'
p1148
sS'pid'
p1149
S'0x8039'
p1150
sS'variant'
p1151
S'robot_motor'
p1152
sS'mcu'
p1153
S'atmega32u4'
p1154
ssS'name'
p1155
S'Arduino Robot Motor'
p1156
saatp1157
Rp1158
(dp1159
S'default'
p1160
S'uno'
p1161
sbtp1162
a(S'used_libs'
p1163
(lp1164
S'/usr/share/arduino/hardware/arduino/cores/arduino'
p1165
atp1166
a(S'make'
p1167
S'/usr/bin/make'
p1168
tp1169
a(S'build_dir'
p1170
S'.build/uno'
p1171
tp1172
a(S'cc'
p1173
S'/usr/bin/avr-gcc'
p1174
tp1175
a(S'cflags'
p1176
g2
(g3
g4
(lp1177
tp1178
Rp1179
tp1180
a(S'cxxflags'
p1181
g2
(g3
g4
(lp1182
S'-fno-exceptions'
p1183
atp1184
Rp1185
tp1186
a(S'arduino_variants_dir'
p1187
S'/usr/share/arduino/hardware/arduino/variants'
p1188
tp1189
a(S'serial'
p1190
S'/usr/bin/picocom'
p1191
tp1192
a(S'stty'
p1193
S'/bin/stty'
p1194
tp1195
a(S'version.txt'
p1196
S'/usr/share/arduino/lib/version.txt'
p1197
tp1198
a(S'arduino_core_dir'
p1199
g1165
tp1200
a(S'boards.txt'
p1201
S'/usr/share/arduino/hardware/arduino/boards.txt'
p1202
tp1203
a(S'avrdude.conf'
p1204
S'/usr/share/arduino/hardware/tools/avrdude.conf'
p1205
tp1206
a(S'deps'
p1207
g2
(g3
g4
(lp1208
S'.build/leonardo/src/dependencies.d'
p1209
aS'.build/leonardo/arduino/dependencies.d'
p1210
atp1211
Rp1212
tp1213
a.